target datalayout = "e-m:e-p270:32:32-p271:32:32-p272:64:64-i64:64-i128:128-f80:128-n8:16:32:64-S128"
target triple = "x86_64-pc-linux-gnu"

%struct.expert_field = type { i32, i32 }
%struct.vec_t = type { ptr, i32 }
%struct._packet_info = type { ptr, ptr, i32, i32, %struct.nstime_t, %struct.nstime_t, %struct.nstime_t, i8, ptr, ptr, ptr, ptr, %struct._address, %struct._address, %struct._address, %struct._address, %struct._address, %struct._address, i32, ptr, i8, [3 x i8], %struct.anon, i32, i32, i32, i32, ptr, i8, ptr, ptr, i16, i16, i32, i32, i16, i32, i32, ptr, ptr, ptr, i8, i8, i16, i16, i16, i32, i16, i16, ptr, ptr, ptr, ptr, ptr, i32, i32 }
%struct.nstime_t = type { i64, i32 }
%struct._address = type { i32, i32, ptr, ptr }
%struct.anon = type { i8, [3 x i8] }

@hf_carp_ver_type = internal global i32 0, align 4
@hf_carp_version = internal global i32 0, align 4
@hf_carp_type = internal global i32 0, align 4
@hf_carp_vhid = internal global i32 0, align 4
@hf_carp_advskew = internal global i32 0, align 4
@hf_carp_authlen = internal global i32 0, align 4
@hf_carp_demotion = internal global i32 0, align 4
@hf_carp_advbase = internal global i32 0, align 4
@hf_carp_counter = internal global i32 0, align 4
@hf_carp_hmac = internal global i32 0, align 4
@hf_carp_checksum = internal global i32 0, align 4
@hf_carp_checksum_status = internal global i32 0, align 4
@ett_carp = internal global i32 0, align 4
@ett_carp_ver_type = internal global i32 0, align 4
@ei_carp_checksum = internal global %struct.expert_field zeroinitializer, align 4
@.str.30 = private unnamed_addr constant [5 x i8] c"CARP\00", align 1
@proto_carp = internal global i32 0, align 4
@carp_type_vals = internal constant [2 x { i32, [4 x i8], ptr }] [{ i32, [4 x i8], ptr } { i32 1, [4 x i8] zeroinitializer, ptr @.str.36 }, { i32, [4 x i8], ptr } zeroinitializer], align 16
@.str.38 = private unnamed_addr constant [25 x i8] c"%s (Virtual Host ID: %u)\00", align 1
@.str.39 = private unnamed_addr constant [13 x i8] c"Announcement\00", align 1
@.str.40 = private unnamed_addr constant [32 x i8] c"Version %u, Packet type %u (%s)\00", align 1
@.str.41 = private unnamed_addr constant [8 x i8] c"Unknown\00", align 1

; Function Attrs: null_pointer_is_valid sspstrong uwtable
define internal zeroext i1 @test_carp_packet(ptr noundef %0, ptr noundef %1, ptr noundef %2, ptr noundef %3) #0 {
  %5 = alloca i1, align 1
  %6 = alloca ptr, align 8
  %7 = alloca ptr, align 8
  %8 = alloca ptr, align 8
  %9 = alloca ptr, align 8
  %10 = alloca i8, align 1
  %11 = alloca i8, align 1
  %12 = alloca i8, align 1
  %13 = alloca i32, align 4
  store ptr %0, ptr %6, align 8
  store ptr %1, ptr %7, align 8
  store ptr %2, ptr %8, align 8
  store ptr %3, ptr %9, align 8
  call void @llvm.lifetime.start.p0(i64 1, ptr %10) #3
  call void @llvm.lifetime.start.p0(i64 1, ptr %11) #3
  call void @llvm.lifetime.start.p0(i64 1, ptr %12) #3
  %14 = load ptr, ptr %6, align 8
  %15 = call i32 @tvb_captured_length(ptr noundef %14)
  %16 = icmp ult i32 %15, 36
  br i1 %16, label %17, label %18

17:                                               ; preds = %4
  store i1 false, ptr %5, align 1
  store i32 1, ptr %13, align 4
  br label %48

18:                                               ; preds = %4
  %19 = load ptr, ptr %6, align 8
  %20 = call zeroext i8 @tvb_get_uint8(ptr noundef %19, i32 noundef 0)
  store i8 %20, ptr %10, align 1
  %21 = load i8, ptr %10, align 1
  %22 = zext i8 %21 to i32
  %23 = and i32 %22, 240
  %24 = ashr i32 %23, 4
  %25 = trunc i32 %24 to i8
  store i8 %25, ptr %11, align 1
  %26 = load i8, ptr %11, align 1
  %27 = zext i8 %26 to i32
  %28 = icmp eq i32 %27, 0
  br i1 %28, label %39, label %29

29:                                               ; preds = %18
  %30 = load i8, ptr %11, align 1
  %31 = zext i8 %30 to i32
  %32 = icmp sgt i32 %31, 2
  br i1 %32, label %39, label %33

33:                                               ; preds = %29
  %34 = load i8, ptr %10, align 1
  %35 = zext i8 %34 to i32
  %36 = and i32 %35, 15
  %37 = call ptr @try_val_to_str(i32 noundef %36, ptr noundef @carp_type_vals)
  %38 = icmp eq ptr %37, null
  br i1 %38, label %39, label %40

39:                                               ; preds = %33, %29, %18
  store i1 false, ptr %5, align 1
  store i32 1, ptr %13, align 4
  br label %48

40:                                               ; preds = %33
  %41 = load ptr, ptr %6, align 8
  %42 = call zeroext i8 @tvb_get_uint8(ptr noundef %41, i32 noundef 3)
  store i8 %42, ptr %12, align 1
  %43 = load i8, ptr %12, align 1
  %44 = zext i8 %43 to i32
  %45 = icmp ne i32 %44, 7
  br i1 %45, label %46, label %47

46:                                               ; preds = %40
  store i1 false, ptr %5, align 1
  store i32 1, ptr %13, align 4
  br label %48

47:                                               ; preds = %40
  store i1 true, ptr %5, align 1
  store i32 1, ptr %13, align 4
  br label %48

48:                                               ; preds = %47, %46, %39, %17
  call void @llvm.lifetime.end.p0(i64 1, ptr %12) #3
  call void @llvm.lifetime.end.p0(i64 1, ptr %11) #3
  call void @llvm.lifetime.end.p0(i64 1, ptr %10) #3
  %49 = load i1, ptr %5, align 1
  ret i1 %49
}

; Function Attrs: null_pointer_is_valid sspstrong uwtable
define internal i32 @dissect_carp(ptr noundef %0, ptr noundef %1, ptr noundef %2, ptr noundef %3) #0 {
  %5 = alloca i32, align 4
  %6 = alloca ptr, align 8
  %7 = alloca ptr, align 8
  %8 = alloca ptr, align 8
  %9 = alloca ptr, align 8
  %10 = alloca i32, align 4
  %11 = alloca i32, align 4
  %12 = alloca i8, align 1
  %13 = alloca [4 x %struct.vec_t], align 16
  %14 = alloca ptr, align 8
  %15 = alloca ptr, align 8
  %16 = alloca ptr, align 8
  %17 = alloca ptr, align 8
  %18 = alloca i8, align 1
  %19 = alloca i32, align 4
  store ptr %0, ptr %6, align 8
  store ptr %1, ptr %7, align 8
  store ptr %2, ptr %8, align 8
  store ptr %3, ptr %9, align 8
  call void @llvm.lifetime.start.p0(i64 4, ptr %10) #3
  store i32 0, ptr %10, align 4
  call void @llvm.lifetime.start.p0(i64 4, ptr %11) #3
  call void @llvm.lifetime.start.p0(i64 1, ptr %12) #3
  call void @llvm.lifetime.start.p0(i64 64, ptr %13) #3
  call void @llvm.lifetime.start.p0(i64 8, ptr %14) #3
  call void @llvm.lifetime.start.p0(i64 8, ptr %15) #3
  call void @llvm.lifetime.start.p0(i64 8, ptr %16) #3
  call void @llvm.lifetime.start.p0(i64 8, ptr %17) #3
  call void @llvm.lifetime.start.p0(i64 1, ptr %18) #3
  %20 = load ptr, ptr %6, align 8
  %21 = load ptr, ptr %7, align 8
  %22 = load ptr, ptr %8, align 8
  %23 = load ptr, ptr %9, align 8
  %24 = call zeroext i1 @test_carp_packet(ptr noundef %20, ptr noundef %21, ptr noundef %22, ptr noundef %23)
  br i1 %24, label %26, label %25

25:                                               ; preds = %4
  store i32 0, ptr %5, align 4
  store i32 1, ptr %19, align 4
  br label %181

26:                                               ; preds = %4
  %27 = load ptr, ptr %7, align 8
  %28 = getelementptr inbounds nuw %struct._packet_info, ptr %27, i32 0, i32 1
  %29 = load ptr, ptr %28, align 8
  call void @col_set_str(ptr noundef %29, i32 noundef 35, ptr noundef @.str.30)
  %30 = load ptr, ptr %7, align 8
  %31 = getelementptr inbounds nuw %struct._packet_info, ptr %30, i32 0, i32 1
  %32 = load ptr, ptr %31, align 8
  call void @col_clear(ptr noundef %32, i32 noundef 25)
  %33 = load ptr, ptr %6, align 8
  %34 = call zeroext i8 @tvb_get_uint8(ptr noundef %33, i32 noundef 1)
  store i8 %34, ptr %12, align 1
  %35 = load ptr, ptr %7, align 8
  %36 = getelementptr inbounds nuw %struct._packet_info, ptr %35, i32 0, i32 1
  %37 = load ptr, ptr %36, align 8
  %38 = load i8, ptr %12, align 1
  %39 = zext i8 %38 to i32
  call void (ptr, i32, ptr, ...) @col_add_fstr(ptr noundef %37, i32 noundef 25, ptr noundef @.str.38, ptr noundef @.str.39, i32 noundef %39)
  %40 = load ptr, ptr %8, align 8
  %41 = load i32, ptr @proto_carp, align 4
  %42 = load ptr, ptr %6, align 8
  %43 = call ptr @proto_tree_add_item(ptr noundef %40, i32 noundef %41, ptr noundef %42, i32 noundef 0, i32 noundef -1, i32 noundef 0)
  store ptr %43, ptr %14, align 8
  %44 = load ptr, ptr %14, align 8
  %45 = load i32, ptr @ett_carp, align 4
  %46 = call ptr @proto_item_add_subtree(ptr noundef %44, i32 noundef %45)
  store ptr %46, ptr %16, align 8
  %47 = load ptr, ptr %6, align 8
  %48 = call zeroext i8 @tvb_get_uint8(ptr noundef %47, i32 noundef 0)
  store i8 %48, ptr %18, align 1
  %49 = load ptr, ptr %16, align 8
  %50 = load i32, ptr @hf_carp_ver_type, align 4
  %51 = load ptr, ptr %6, align 8
  %52 = load i32, ptr %10, align 4
  %53 = load i8, ptr %18, align 1
  %54 = zext i8 %53 to i32
  %55 = load i8, ptr %18, align 1
  %56 = zext i8 %55 to i32
  %57 = and i32 %56, 240
  %58 = ashr i32 %57, 4
  %59 = load i8, ptr %18, align 1
  %60 = zext i8 %59 to i32
  %61 = and i32 %60, 15
  %62 = load i8, ptr %18, align 1
  %63 = zext i8 %62 to i32
  %64 = and i32 %63, 15
  %65 = call ptr @val_to_str_const(i32 noundef %64, ptr noundef @carp_type_vals, ptr noundef @.str.41)
  %66 = call ptr (ptr, i32, ptr, i32, i32, i32, ptr, ...) @proto_tree_add_uint_format(ptr noundef %49, i32 noundef %50, ptr noundef %51, i32 noundef %52, i32 noundef 1, i32 noundef %54, ptr noundef @.str.40, i32 noundef %58, i32 noundef %61, ptr noundef %65)
  store ptr %66, ptr %15, align 8
  %67 = load ptr, ptr %15, align 8
  %68 = load i32, ptr @ett_carp_ver_type, align 4
  %69 = call ptr @proto_item_add_subtree(ptr noundef %67, i32 noundef %68)
  store ptr %69, ptr %17, align 8
  %70 = load ptr, ptr %17, align 8
  %71 = load i32, ptr @hf_carp_version, align 4
  %72 = load ptr, ptr %6, align 8
  %73 = load i32, ptr %10, align 4
  %74 = load i8, ptr %18, align 1
  %75 = zext i8 %74 to i32
  %76 = call ptr @proto_tree_add_uint(ptr noundef %70, i32 noundef %71, ptr noundef %72, i32 noundef %73, i32 noundef 1, i32 noundef %75)
  %77 = load ptr, ptr %17, align 8
  %78 = load i32, ptr @hf_carp_type, align 4
  %79 = load ptr, ptr %6, align 8
  %80 = load i32, ptr %10, align 4
  %81 = load i8, ptr %18, align 1
  %82 = zext i8 %81 to i32
  %83 = call ptr @proto_tree_add_uint(ptr noundef %77, i32 noundef %78, ptr noundef %79, i32 noundef %80, i32 noundef 1, i32 noundef %82)
  %84 = load i32, ptr %10, align 4
  %85 = add i32 %84, 1
  store i32 %85, ptr %10, align 4
  %86 = load ptr, ptr %16, align 8
  %87 = load i32, ptr @hf_carp_vhid, align 4
  %88 = load ptr, ptr %6, align 8
  %89 = load i32, ptr %10, align 4
  %90 = call ptr @proto_tree_add_item(ptr noundef %86, i32 noundef %87, ptr noundef %88, i32 noundef %89, i32 noundef 1, i32 noundef 0)
  %91 = load i32, ptr %10, align 4
  %92 = add i32 %91, 1
  store i32 %92, ptr %10, align 4
  %93 = load ptr, ptr %16, align 8
  %94 = load i32, ptr @hf_carp_advskew, align 4
  %95 = load ptr, ptr %6, align 8
  %96 = load i32, ptr %10, align 4
  %97 = call ptr @proto_tree_add_item(ptr noundef %93, i32 noundef %94, ptr noundef %95, i32 noundef %96, i32 noundef 1, i32 noundef 0)
  %98 = load i32, ptr %10, align 4
  %99 = add i32 %98, 1
  store i32 %99, ptr %10, align 4
  %100 = load ptr, ptr %16, align 8
  %101 = load i32, ptr @hf_carp_authlen, align 4
  %102 = load ptr, ptr %6, align 8
  %103 = load i32, ptr %10, align 4
  %104 = call ptr @proto_tree_add_item(ptr noundef %100, i32 noundef %101, ptr noundef %102, i32 noundef %103, i32 noundef 1, i32 noundef 0)
  %105 = load i32, ptr %10, align 4
  %106 = add i32 %105, 1
  store i32 %106, ptr %10, align 4
  %107 = load ptr, ptr %16, align 8
  %108 = load i32, ptr @hf_carp_demotion, align 4
  %109 = load ptr, ptr %6, align 8
  %110 = load i32, ptr %10, align 4
  %111 = call ptr @proto_tree_add_item(ptr noundef %107, i32 noundef %108, ptr noundef %109, i32 noundef %110, i32 noundef 1, i32 noundef 0)
  %112 = load i32, ptr %10, align 4
  %113 = add i32 %112, 1
  store i32 %113, ptr %10, align 4
  %114 = load ptr, ptr %16, align 8
  %115 = load i32, ptr @hf_carp_advbase, align 4
  %116 = load ptr, ptr %6, align 8
  %117 = load i32, ptr %10, align 4
  %118 = call ptr @proto_tree_add_item(ptr noundef %114, i32 noundef %115, ptr noundef %116, i32 noundef %117, i32 noundef 1, i32 noundef 0)
  %119 = load i32, ptr %10, align 4
  %120 = add i32 %119, 1
  store i32 %120, ptr %10, align 4
  %121 = load ptr, ptr %6, align 8
  %122 = call i32 @tvb_reported_length(ptr noundef %121)
  store i32 %122, ptr %11, align 4
  %123 = load ptr, ptr %7, align 8
  %124 = getelementptr inbounds nuw %struct._packet_info, ptr %123, i32 0, i32 20
  %125 = load i8, ptr %124, align 8, !range !6, !noundef !7
  %126 = trunc i8 %125 to i1
  br i1 %126, label %155, label %127

127:                                              ; preds = %26
  %128 = load ptr, ptr %6, align 8
  %129 = call i32 @tvb_captured_length(ptr noundef %128)
  %130 = load i32, ptr %11, align 4
  %131 = icmp uge i32 %129, %130
  br i1 %131, label %132, label %155

132:                                              ; preds = %127
  br label %133

133:                                              ; preds = %132
  %134 = load i32, ptr %11, align 4
  %135 = getelementptr [4 x %struct.vec_t], ptr %13, i64 0, i64 0
  %136 = getelementptr inbounds nuw %struct.vec_t, ptr %135, i32 0, i32 1
  store i32 %134, ptr %136, align 8
  %137 = load ptr, ptr %6, align 8
  %138 = getelementptr [4 x %struct.vec_t], ptr %13, i64 0, i64 0
  %139 = getelementptr inbounds nuw %struct.vec_t, ptr %138, i32 0, i32 1
  %140 = load i32, ptr %139, align 8
  %141 = call ptr @tvb_get_ptr(ptr noundef %137, i32 noundef 0, i32 noundef %140)
  %142 = getelementptr [4 x %struct.vec_t], ptr %13, i64 0, i64 0
  %143 = getelementptr inbounds nuw %struct.vec_t, ptr %142, i32 0, i32 0
  store ptr %141, ptr %143, align 16
  br label %144

144:                                              ; preds = %133
  br label %145

145:                                              ; preds = %144
  %146 = load ptr, ptr %16, align 8
  %147 = load ptr, ptr %6, align 8
  %148 = load i32, ptr %10, align 4
  %149 = load i32, ptr @hf_carp_checksum, align 4
  %150 = load i32, ptr @hf_carp_checksum_status, align 4
  %151 = load ptr, ptr %7, align 8
  %152 = getelementptr [4 x %struct.vec_t], ptr %13, i64 0, i64 0
  %153 = call i32 @in_cksum(ptr noundef %152, i32 noundef 1)
  %154 = call ptr @proto_tree_add_checksum(ptr noundef %146, ptr noundef %147, i32 noundef %148, i32 noundef %149, i32 noundef %150, ptr noundef @ei_carp_checksum, ptr noundef %151, i32 noundef %153, i32 noundef 0, i32 noundef 5)
  br label %163

155:                                              ; preds = %127, %26
  %156 = load ptr, ptr %16, align 8
  %157 = load ptr, ptr %6, align 8
  %158 = load i32, ptr %10, align 4
  %159 = load i32, ptr @hf_carp_checksum, align 4
  %160 = load i32, ptr @hf_carp_checksum_status, align 4
  %161 = load ptr, ptr %7, align 8
  %162 = call ptr @proto_tree_add_checksum(ptr noundef %156, ptr noundef %157, i32 noundef %158, i32 noundef %159, i32 noundef %160, ptr noundef @ei_carp_checksum, ptr noundef %161, i32 noundef 0, i32 noundef 0, i32 noundef 0)
  br label %163

163:                                              ; preds = %155, %145
  %164 = load i32, ptr %10, align 4
  %165 = add i32 %164, 2
  store i32 %165, ptr %10, align 4
  %166 = load ptr, ptr %16, align 8
  %167 = load i32, ptr @hf_carp_counter, align 4
  %168 = load ptr, ptr %6, align 8
  %169 = load i32, ptr %10, align 4
  %170 = call ptr @proto_tree_add_item(ptr noundef %166, i32 noundef %167, ptr noundef %168, i32 noundef %169, i32 noundef 8, i32 noundef 0)
  %171 = load i32, ptr %10, align 4
  %172 = add i32 %171, 8
  store i32 %172, ptr %10, align 4
  %173 = load ptr, ptr %16, align 8
  %174 = load i32, ptr @hf_carp_hmac, align 4
  %175 = load ptr, ptr %6, align 8
  %176 = load i32, ptr %10, align 4
  %177 = call ptr @proto_tree_add_item(ptr noundef %173, i32 noundef %174, ptr noundef %175, i32 noundef %176, i32 noundef 20, i32 noundef 0)
  %178 = load i32, ptr %10, align 4
  %179 = add i32 %178, 20
  store i32 %179, ptr %10, align 4
  %180 = load i32, ptr %10, align 4
  store i32 %180, ptr %5, align 4
  store i32 1, ptr %19, align 4
  br label %181

181:                                              ; preds = %163, %25
  call void @llvm.lifetime.end.p0(i64 1, ptr %18) #3
  call void @llvm.lifetime.end.p0(i64 8, ptr %17) #3
  call void @llvm.lifetime.end.p0(i64 8, ptr %16) #3
  call void @llvm.lifetime.end.p0(i64 8, ptr %15) #3
  call void @llvm.lifetime.end.p0(i64 8, ptr %14) #3
  call void @llvm.lifetime.end.p0(i64 64, ptr %13) #3
  call void @llvm.lifetime.end.p0(i64 1, ptr %12) #3
  call void @llvm.lifetime.end.p0(i64 4, ptr %11) #3
  call void @llvm.lifetime.end.p0(i64 4, ptr %10) #3
  %182 = load i32, ptr %5, align 4
  ret i32 %182
}