; Function Attrs: null_pointer_is_valid sspstrong uwtable
define internal range(i32 0, 37) i32 @dissect_carp(ptr noundef %0, ptr noundef %1, ptr noundef %2, ptr readnone captures(none) %3) #0 {
  %5 = alloca [4 x %struct.vec_t], align 16
  call void @llvm.lifetime.start.p0(i64 64, ptr nonnull %5) #3
  %6 = tail call i32 @tvb_captured_length(ptr noundef %0)
  %7 = icmp ult i32 %6, 36
  br i1 %7, label %test_carp_packet.exit.thread, label %8

8:                                                ; preds = %4
  %9 = tail call zeroext i8 @tvb_get_uint8(ptr noundef %0, i32 noundef 0)
  %10 = add i8 %9, -48
  %or.cond.i = icmp ult i8 %10, -32
  br i1 %or.cond.i, label %test_carp_packet.exit.thread, label %11

11:                                               ; preds = %8
  %12 = and i8 %9, 15
  %13 = zext nneg i8 %12 to i32
  %14 = tail call ptr @try_val_to_str(i32 noundef %13, ptr noundef nonnull @carp_type_vals)
  %15 = icmp eq ptr %14, null
  br i1 %15, label %test_carp_packet.exit.thread, label %test_carp_packet.exit

test_carp_packet.exit:                            ; preds = %11
  %16 = tail call zeroext i8 @tvb_get_uint8(ptr noundef %0, i32 noundef 3)
  %.not.i = icmp eq i8 %16, 7
  br i1 %.not.i, label %17, label %test_carp_packet.exit.thread

17:                                               ; preds = %test_carp_packet.exit
  %18 = getelementptr inbounds nuw i8, ptr %1, i64 8
  %19 = load ptr, ptr %18, align 8
  tail call void @col_set_str(ptr noundef %19, i32 noundef 35, ptr noundef nonnull @.str.30)
  %20 = load ptr, ptr %18, align 8
  tail call void @col_clear(ptr noundef %20, i32 noundef 25)
  %21 = tail call zeroext i8 @tvb_get_uint8(ptr noundef %0, i32 noundef 1)
  %22 = load ptr, ptr %18, align 8
  %23 = zext i8 %21 to i32
  tail call void (ptr, i32, ptr, ...) @col_add_fstr(ptr noundef %22, i32 noundef 25, ptr noundef nonnull @.str.38, ptr noundef nonnull @.str.39, i32 noundef %23)
  %24 = load i32, ptr @proto_carp, align 4
  %25 = tail call ptr @proto_tree_add_item(ptr noundef %2, i32 noundef %24, ptr noundef %0, i32 noundef 0, i32 noundef -1, i32 noundef 0)
  %26 = load i32, ptr @ett_carp, align 4
  %27 = tail call ptr @proto_item_add_subtree(ptr noundef %25, i32 noundef %26)
  %28 = tail call zeroext i8 @tvb_get_uint8(ptr noundef %0, i32 noundef 0)
  %29 = load i32, ptr @hf_carp_ver_type, align 4
  %30 = zext i8 %28 to i32
  %31 = lshr i32 %30, 4
  %32 = and i32 %30, 15
  %33 = tail call ptr @val_to_str_const(i32 noundef %32, ptr noundef nonnull @carp_type_vals, ptr noundef nonnull @.str.41)
  %34 = tail call ptr (ptr, i32, ptr, i32, i32, i32, ptr, ...) @proto_tree_add_uint_format(ptr noundef %27, i32 noundef %29, ptr noundef %0, i32 noundef 0, i32 noundef 1, i32 noundef %30, ptr noundef nonnull @.str.40, i32 noundef %31, i32 noundef %32, ptr noundef %33)
  %35 = load i32, ptr @ett_carp_ver_type, align 4
  %36 = tail call ptr @proto_item_add_subtree(ptr noundef %34, i32 noundef %35)
  %37 = load i32, ptr @hf_carp_version, align 4
  %38 = tail call ptr @proto_tree_add_uint(ptr noundef %36, i32 noundef %37, ptr noundef %0, i32 noundef 0, i32 noundef 1, i32 noundef %30)
  %39 = load i32, ptr @hf_carp_type, align 4
  %40 = tail call ptr @proto_tree_add_uint(ptr noundef %36, i32 noundef %39, ptr noundef %0, i32 noundef 0, i32 noundef 1, i32 noundef %30)
  %41 = load i32, ptr @hf_carp_vhid, align 4
  %42 = tail call ptr @proto_tree_add_item(ptr noundef %27, i32 noundef %41, ptr noundef %0, i32 noundef 1, i32 noundef 1, i32 noundef 0)
  %43 = load i32, ptr @hf_carp_advskew, align 4
  %44 = tail call ptr @proto_tree_add_item(ptr noundef %27, i32 noundef %43, ptr noundef %0, i32 noundef 2, i32 noundef 1, i32 noundef 0)
  %45 = load i32, ptr @hf_carp_authlen, align 4
  %46 = tail call ptr @proto_tree_add_item(ptr noundef %27, i32 noundef %45, ptr noundef %0, i32 noundef 3, i32 noundef 1, i32 noundef 0)
  %47 = load i32, ptr @hf_carp_demotion, align 4
  %48 = tail call ptr @proto_tree_add_item(ptr noundef %27, i32 noundef %47, ptr noundef %0, i32 noundef 4, i32 noundef 1, i32 noundef 0)
  %49 = load i32, ptr @hf_carp_advbase, align 4
  %50 = tail call ptr @proto_tree_add_item(ptr noundef %27, i32 noundef %49, ptr noundef %0, i32 noundef 5, i32 noundef 1, i32 noundef 0)
  %51 = tail call i32 @tvb_reported_length(ptr noundef %0)
  %52 = getelementptr inbounds nuw i8, ptr %1, i64 272
  %53 = load i8, ptr %52, align 8, !range !6, !noundef !7
  %54 = trunc nuw i8 %53 to i1
  br i1 %54, label %64, label %55

55:                                               ; preds = %17
  %56 = tail call i32 @tvb_captured_length(ptr noundef %0)
  %.not = icmp ult i32 %56, %51
  br i1 %.not, label %64, label %57

57:                                               ; preds = %55
  %58 = getelementptr inbounds nuw i8, ptr %5, i64 8
  store i32 %51, ptr %58, align 8
  %59 = tail call ptr @tvb_get_ptr(ptr noundef %0, i32 noundef 0, i32 noundef %51)
  store ptr %59, ptr %5, align 16
  %60 = load i32, ptr @hf_carp_checksum, align 4
  %61 = load i32, ptr @hf_carp_checksum_status, align 4
  %62 = call i32 @in_cksum(ptr noundef nonnull %5, i32 noundef 1)
  %63 = call ptr @proto_tree_add_checksum(ptr noundef %27, ptr noundef %0, i32 noundef 6, i32 noundef %60, i32 noundef %61, ptr noundef nonnull @ei_carp_checksum, ptr noundef %1, i32 noundef %62, i32 noundef 0, i32 noundef 5)
  br label %68

64:                                               ; preds = %55, %17
  %65 = load i32, ptr @hf_carp_checksum, align 4
  %66 = load i32, ptr @hf_carp_checksum_status, align 4
  %67 = tail call ptr @proto_tree_add_checksum(ptr noundef %27, ptr noundef %0, i32 noundef 6, i32 noundef %65, i32 noundef %66, ptr noundef nonnull @ei_carp_checksum, ptr noundef %1, i32 noundef 0, i32 noundef 0, i32 noundef 0)
  br label %68

68:                                               ; preds = %64, %57
  %69 = load i32, ptr @hf_carp_counter, align 4
  %70 = call ptr @proto_tree_add_item(ptr noundef %27, i32 noundef %69, ptr noundef %0, i32 noundef 8, i32 noundef 8, i32 noundef 0)
  %71 = load i32, ptr @hf_carp_hmac, align 4
  %72 = call ptr @proto_tree_add_item(ptr noundef %27, i32 noundef %71, ptr noundef %0, i32 noundef 16, i32 noundef 20, i32 noundef 0)
  br label %test_carp_packet.exit.thread

test_carp_packet.exit.thread:                     ; preds = %8, %11, %4, %test_carp_packet.exit, %68
  %.0 = phi i32 [ 36, %68 ], [ 0, %test_carp_packet.exit ], [ 0, %4 ], [ 0, %11 ], [ 0, %8 ]
  call void @llvm.lifetime.end.p0(i64 64, ptr nonnull %5) #3
  ret i32 %.0
}